target datalayout = "e-m:e-p270:32:32-p271:32:32-p272:64:64-i64:64-i128:128-f80:128-n8:16:32:64-S128"
target triple = "x86_64-pc-linux-gnu"

%struct.lv_file_explorer_file_table_entry_data_t = type { i32 }

; Function Attrs: nounwind uwtable
define internal void @sort_by_file_kind(ptr noundef %0, i16 noundef signext %1, i16 noundef signext %2) #0 {
  %4 = alloca ptr, align 8
  %5 = alloca i16, align 2
  %6 = alloca i16, align 2
  %7 = alloca i16, align 2
  %8 = alloca i16, align 2
  %9 = alloca i16, align 2
  %10 = alloca ptr, align 8
  %11 = alloca ptr, align 8
  store ptr %0, ptr %4, align 8, !tbaa !8
  store i16 %1, ptr %5, align 2, !tbaa !39
  store i16 %2, ptr %6, align 2, !tbaa !39
  %12 = load i16, ptr %5, align 2, !tbaa !39
  %13 = sext i16 %12 to i32
  %14 = load i16, ptr %6, align 2, !tbaa !39
  %15 = sext i16 %14 to i32
  %16 = icmp sge i32 %13, %15
  br i1 %16, label %17, label %18

17:                                               ; preds = %3
  br label %82

18:                                               ; preds = %3
  call void @llvm.lifetime.start.p0(i64 2, ptr %7) #5
  %19 = load i16, ptr %5, align 2, !tbaa !39
  store i16 %19, ptr %7, align 2, !tbaa !39
  call void @llvm.lifetime.start.p0(i64 2, ptr %8) #5
  %20 = load i16, ptr %5, align 2, !tbaa !39
  %21 = sext i16 %20 to i32
  %22 = add nsw i32 %21, 1
  %23 = trunc i32 %22 to i16
  store i16 %23, ptr %8, align 2, !tbaa !39
  call void @llvm.lifetime.start.p0(i64 2, ptr %9) #5
  %24 = load i16, ptr %6, align 2, !tbaa !39
  store i16 %24, ptr %9, align 2, !tbaa !39
  call void @llvm.lifetime.start.p0(i64 8, ptr %10) #5
  %25 = load ptr, ptr %4, align 8, !tbaa !8
  %26 = load i16, ptr %5, align 2, !tbaa !39
  %27 = call ptr @lv_table_get_cell_user_data(ptr noundef %25, i16 noundef zeroext %26, i16 noundef zeroext 0)
  store ptr %27, ptr %10, align 8, !tbaa !41
  br label %28

28:                                               ; preds = %68, %18
  %29 = load i16, ptr %8, align 2, !tbaa !39
  %30 = sext i16 %29 to i32
  %31 = load i16, ptr %9, align 2, !tbaa !39
  %32 = sext i16 %31 to i32
  %33 = icmp sle i32 %30, %32
  br i1 %33, label %34, label %69

34:                                               ; preds = %28
  call void @llvm.lifetime.start.p0(i64 8, ptr %11) #5
  %35 = load ptr, ptr %4, align 8, !tbaa !8
  %36 = load i16, ptr %8, align 2, !tbaa !39
  %37 = call ptr @lv_table_get_cell_user_data(ptr noundef %35, i16 noundef zeroext %36, i16 noundef zeroext 0)
  store ptr %37, ptr %11, align 8, !tbaa !41
  %38 = load ptr, ptr %11, align 8, !tbaa !41
  %39 = getelementptr inbounds nuw %struct.lv_file_explorer_file_table_entry_data_t, ptr %38, i32 0, i32 0
  %40 = load i32, ptr %39, align 4, !tbaa !42
  %41 = load ptr, ptr %10, align 8, !tbaa !41
  %42 = getelementptr inbounds nuw %struct.lv_file_explorer_file_table_entry_data_t, ptr %41, i32 0, i32 0
  %43 = load i32, ptr %42, align 4, !tbaa !42
  %44 = icmp ult i32 %40, %43
  br i1 %44, label %45, label %51

45:                                               ; preds = %34
  %46 = load ptr, ptr %4, align 8, !tbaa !8
  %47 = load i16, ptr %7, align 2, !tbaa !39
  %48 = add i16 %47, 1
  store i16 %48, ptr %7, align 2, !tbaa !39
  %49 = load i16, ptr %8, align 2, !tbaa !39
  %50 = add i16 %49, 1
  store i16 %50, ptr %8, align 2, !tbaa !39
  call void @exch_table_item(ptr noundef %46, i16 noundef signext %47, i16 noundef signext %49)
  br label %68

51:                                               ; preds = %34
  %52 = load ptr, ptr %11, align 8, !tbaa !41
  %53 = getelementptr inbounds nuw %struct.lv_file_explorer_file_table_entry_data_t, ptr %52, i32 0, i32 0
  %54 = load i32, ptr %53, align 4, !tbaa !42
  %55 = load ptr, ptr %10, align 8, !tbaa !41
  %56 = getelementptr inbounds nuw %struct.lv_file_explorer_file_table_entry_data_t, ptr %55, i32 0, i32 0
  %57 = load i32, ptr %56, align 4, !tbaa !42
  %58 = icmp ugt i32 %54, %57
  br i1 %58, label %59, label %64

59:                                               ; preds = %51
  %60 = load ptr, ptr %4, align 8, !tbaa !8
  %61 = load i16, ptr %8, align 2, !tbaa !39
  %62 = load i16, ptr %9, align 2, !tbaa !39
  %63 = add i16 %62, -1
  store i16 %63, ptr %9, align 2, !tbaa !39
  call void @exch_table_item(ptr noundef %60, i16 noundef signext %61, i16 noundef signext %62)
  br label %67

64:                                               ; preds = %51
  %65 = load i16, ptr %8, align 2, !tbaa !39
  %66 = add i16 %65, 1
  store i16 %66, ptr %8, align 2, !tbaa !39
  br label %67

67:                                               ; preds = %64, %59
  br label %68

68:                                               ; preds = %67, %45
  call void @llvm.lifetime.end.p0(i64 8, ptr %11) #5
  br label %28, !llvm.loop !54

69:                                               ; preds = %28
  %70 = load ptr, ptr %4, align 8, !tbaa !8
  %71 = load i16, ptr %5, align 2, !tbaa !39
  %72 = load i16, ptr %7, align 2, !tbaa !39
  %73 = sext i16 %72 to i32
  %74 = sub nsw i32 %73, 1
  %75 = trunc i32 %74 to i16
  call void @sort_by_file_kind(ptr noundef %70, i16 noundef signext %71, i16 noundef signext %75)
  %76 = load ptr, ptr %4, align 8, !tbaa !8
  %77 = load i16, ptr %9, align 2, !tbaa !39
  %78 = sext i16 %77 to i32
  %79 = add nsw i32 %78, 1
  %80 = trunc i32 %79 to i16
  %81 = load i16, ptr %6, align 2, !tbaa !39
  call void @sort_by_file_kind(ptr noundef %76, i16 noundef signext %80, i16 noundef signext %81)
  call void @llvm.lifetime.end.p0(i64 8, ptr %10) #5
  call void @llvm.lifetime.end.p0(i64 2, ptr %9) #5
  call void @llvm.lifetime.end.p0(i64 2, ptr %8) #5
  call void @llvm.lifetime.end.p0(i64 2, ptr %7) #5
  br label %82

82:                                               ; preds = %69, %17
  ret void
}