; Function Attrs: nounwind uwtable
define internal fastcc void @sort_by_file_kind(ptr noundef %0, i16 noundef signext range(i16 -32767, -32768) %1, i16 noundef signext %2) unnamed_addr #0 {
  %.not43 = icmp slt i16 %1, %2
  br i1 %.not43, label %.lr.ph46, label %tailrecurse._crit_edge

.lr.ph46:                                         ; preds = %3, %tailrecurse
  %.tr3644 = phi i16 [ %21, %tailrecurse ], [ %1, %3 ]
  %4 = tail call ptr @lv_table_get_cell_user_data(ptr noundef %0, i16 noundef zeroext %.tr3644, i16 noundef zeroext 0) #6
  %.not3538.not = icmp slt i16 %.tr3644, %2
  br i1 %.not3538.not, label %.lr.ph.preheader, label %tailrecurse

.lr.ph.preheader:                                 ; preds = %.lr.ph46
  %5 = add nsw i16 %.tr3644, 1
  br label %.lr.ph

.lr.ph:                                           ; preds = %.lr.ph.preheader, %19
  %.041 = phi i16 [ %.1, %19 ], [ %.tr3644, %.lr.ph.preheader ]
  %.02740 = phi i16 [ %.128, %19 ], [ %5, %.lr.ph.preheader ]
  %.02939 = phi i16 [ %.130, %19 ], [ %2, %.lr.ph.preheader ]
  %6 = tail call ptr @lv_table_get_cell_user_data(ptr noundef %0, i16 noundef zeroext %.02740, i16 noundef zeroext 0) #6
  %7 = load i32, ptr %6, align 4, !tbaa !30
  %8 = load i32, ptr %4, align 4, !tbaa !30
  %9 = icmp ult i32 %7, %8
  br i1 %9, label %10, label %13

10:                                               ; preds = %.lr.ph
  %11 = add i16 %.041, 1
  %12 = add i16 %.02740, 1
  tail call fastcc void @exch_table_item(ptr noundef %0, i16 noundef signext %.041, i16 noundef signext %.02740)
  br label %19

13:                                               ; preds = %.lr.ph
  %14 = icmp ugt i32 %7, %8
  br i1 %14, label %15, label %17

15:                                               ; preds = %13
  %16 = add i16 %.02939, -1
  tail call fastcc void @exch_table_item(ptr noundef %0, i16 noundef signext %.02740, i16 noundef signext %.02939)
  br label %19

17:                                               ; preds = %13
  %18 = add i16 %.02740, 1
  br label %19

19:                                               ; preds = %15, %17, %10
  %.130 = phi i16 [ %.02939, %10 ], [ %16, %15 ], [ %.02939, %17 ]
  %.128 = phi i16 [ %12, %10 ], [ %.02740, %15 ], [ %18, %17 ]
  %.1 = phi i16 [ %11, %10 ], [ %.041, %15 ], [ %.041, %17 ]
  %.not35 = icmp sgt i16 %.128, %.130
  br i1 %.not35, label %tailrecurse, label %.lr.ph, !llvm.loop !36

tailrecurse:                                      ; preds = %19, %.lr.ph46
  %.029.lcssa = phi i16 [ %2, %.lr.ph46 ], [ %.130, %19 ]
  %.0.lcssa = phi i16 [ %.tr3644, %.lr.ph46 ], [ %.1, %19 ]
  %20 = add i16 %.0.lcssa, -1
  tail call fastcc void @sort_by_file_kind(ptr noundef %0, i16 noundef signext %.tr3644, i16 noundef signext %20)
  %21 = add nsw i16 %.029.lcssa, 1
  %.not = icmp slt i16 %21, %2
  br i1 %.not, label %.lr.ph46, label %tailrecurse._crit_edge

tailrecurse._crit_edge:                           ; preds = %tailrecurse, %3
  ret void
}